; ModuleID = '46/1832.c'
source_filename = "46/1832.c"
target datalayout = "e-m:e-p270:32:32-p271:32:32-p272:64:64-i64:64-f80:128-n8:16:32:64-S128"
target triple = "x86_64-pc-linux-gnu"

@.str = private unnamed_addr constant [5 x i8] c"%d%d\00", align 1
@.str.1 = private unnamed_addr constant [3 x i8] c"%d\00", align 1
@.str.2 = private unnamed_addr constant [4 x i8] c"%d\0A\00", align 1

; Function Attrs: noinline nounwind uwtable
define dso_local i32 @main() #0 {
  %1 = alloca i32, align 4
  %2 = alloca [100 x [100 x i32]], align 16
  %3 = alloca i32, align 4
  %4 = alloca i32, align 4
  %5 = alloca i32, align 4
  %6 = alloca i32, align 4
  %7 = alloca i32, align 4
  %8 = alloca i32, align 4
  %9 = alloca i32, align 4
  store i32 0, i32* %1, align 4
  store i32 0, i32* %7, align 4
  %10 = call i32 (i8*, ...) @__isoc99_scanf(i8* getelementptr inbounds ([5 x i8], [5 x i8]* @.str, i64 0, i64 0), i32* %3, i32* %4)
  store i32 0, i32* %5, align 4
  br label %11

11:                                               ; preds = %32, %0
  %12 = load i32, i32* %5, align 4
  %13 = load i32, i32* %3, align 4
  %14 = icmp slt i32 %12, %13
  br i1 %14, label %15, label %35

15:                                               ; preds = %11
  store i32 0, i32* %6, align 4
  br label %16

16:                                               ; preds = %28, %15
  %17 = load i32, i32* %6, align 4
  %18 = load i32, i32* %4, align 4
  %19 = icmp slt i32 %17, %18
  br i1 %19, label %20, label %31

20:                                               ; preds = %16
  %21 = load i32, i32* %5, align 4
  %22 = sext i32 %21 to i64
  %23 = getelementptr inbounds [100 x [100 x i32]], [100 x [100 x i32]]* %2, i64 0, i64 %22
  %24 = load i32, i32* %6, align 4
  %25 = sext i32 %24 to i64
  %26 = getelementptr inbounds [100 x i32], [100 x i32]* %23, i64 0, i64 %25
  %27 = call i32 (i8*, ...) @__isoc99_scanf(i8* getelementptr inbounds ([3 x i8], [3 x i8]* @.str.1, i64 0, i64 0), i32* %26)
  br label %28

28:                                               ; preds = %20
  %29 = load i32, i32* %6, align 4
  %30 = add nsw i32 %29, 1
  store i32 %30, i32* %6, align 4
  br label %16

31:                                               ; preds = %16
  br label %32

32:                                               ; preds = %31
  %33 = load i32, i32* %5, align 4
  %34 = add nsw i32 %33, 1
  store i32 %34, i32* %5, align 4
  br label %11

35:                                               ; preds = %11
  store i32 0, i32* %9, align 4
  store i32 0, i32* %5, align 4
  br label %36

36:                                               ; preds = %223, %35
  %37 = load i32, i32* %9, align 4
  %38 = load i32, i32* %3, align 4
  %39 = load i32, i32* %4, align 4
  %40 = mul nsw i32 %38, %39
  %41 = icmp slt i32 %37, %40
  br i1 %41, label %42, label %224

42:                                               ; preds = %36
  %43 = load i32, i32* %7, align 4
  store i32 %43, i32* %6, align 4
  br label %44

44:                                               ; preds = %77, %42
  %45 = load i32, i32* %6, align 4
  %46 = load i32, i32* %4, align 4
  %47 = icmp slt i32 %45, %46
  br i1 %47, label %48, label %80

48:                                               ; preds = %44
  %49 = load i32, i32* %5, align 4
  %50 = sext i32 %49 to i64
  %51 = getelementptr inbounds [100 x [100 x i32]], [100 x [100 x i32]]* %2, i64 0, i64 %50
  %52 = load i32, i32* %6, align 4
  %53 = sext i32 %52 to i64
  %54 = getelementptr inbounds [100 x i32], [100 x i32]* %51, i64 0, i64 %53
  %55 = load i32, i32* %54, align 4
  %56 = call i32 (i8*, ...) @printf(i8* getelementptr inbounds ([4 x i8], [4 x i8]* @.str.2, i64 0, i64 0), i32 %55)
  %57 = load i32, i32* %9, align 4
  %58 = add nsw i32 %57, 1
  store i32 %58, i32* %9, align 4
  %59 = load i32, i32* %5, align 4
  %60 = sext i32 %59 to i64
  %61 = getelementptr inbounds [100 x [100 x i32]], [100 x [100 x i32]]* %2, i64 0, i64 %60
  %62 = load i32, i32* %6, align 4
  %63 = sext i32 %62 to i64
  %64 = getelementptr inbounds [100 x i32], [100 x i32]* %61, i64 0, i64 %63
  store i32 -1, i32* %64, align 4
  %65 = load i32, i32* %6, align 4
  store i32 %65, i32* %8, align 4
  %66 = load i32, i32* %5, align 4
  %67 = sext i32 %66 to i64
  %68 = getelementptr inbounds [100 x [100 x i32]], [100 x [100 x i32]]* %2, i64 0, i64 %67
  %69 = load i32, i32* %6, align 4
  %70 = add nsw i32 %69, 1
  %71 = sext i32 %70 to i64
  %72 = getelementptr inbounds [100 x i32], [100 x i32]* %68, i64 0, i64 %71
  %73 = load i32, i32* %72, align 4
  %74 = icmp eq i32 %73, -1
  br i1 %74, label %75, label %76

75:                                               ; preds = %48
  br label %80

76:                                               ; preds = %48
  br label %77

77:                                               ; preds = %76
  %78 = load i32, i32* %6, align 4
  %79 = add nsw i32 %78, 1
  store i32 %79, i32* %6, align 4
  br label %44

80:                                               ; preds = %75, %44
  %81 = load i32, i32* %9, align 4
  %82 = load i32, i32* %3, align 4
  %83 = load i32, i32* %4, align 4
  %84 = mul nsw i32 %82, %83
  %85 = icmp eq i32 %81, %84
  br i1 %85, label %86, label %87

86:                                               ; preds = %80
  br label %224

87:                                               ; preds = %80
  %88 = load i32, i32* %5, align 4
  %89 = add nsw i32 %88, 1
  store i32 %89, i32* %5, align 4
  br label %90

90:                                               ; preds = %123, %87
  %91 = load i32, i32* %5, align 4
  %92 = load i32, i32* %3, align 4
  %93 = icmp slt i32 %91, %92
  br i1 %93, label %94, label %126

94:                                               ; preds = %90
  %95 = load i32, i32* %5, align 4
  %96 = sext i32 %95 to i64
  %97 = getelementptr inbounds [100 x [100 x i32]], [100 x [100 x i32]]* %2, i64 0, i64 %96
  %98 = load i32, i32* %8, align 4
  %99 = sext i32 %98 to i64
  %100 = getelementptr inbounds [100 x i32], [100 x i32]* %97, i64 0, i64 %99
  %101 = load i32, i32* %100, align 4
  %102 = call i32 (i8*, ...) @printf(i8* getelementptr inbounds ([4 x i8], [4 x i8]* @.str.2, i64 0, i64 0), i32 %101)
  %103 = load i32, i32* %9, align 4
  %104 = add nsw i32 %103, 1
  store i32 %104, i32* %9, align 4
  %105 = load i32, i32* %5, align 4
  %106 = sext i32 %105 to i64
  %107 = getelementptr inbounds [100 x [100 x i32]], [100 x [100 x i32]]* %2, i64 0, i64 %106
  %108 = load i32, i32* %8, align 4
  %109 = sext i32 %108 to i64
  %110 = getelementptr inbounds [100 x i32], [100 x i32]* %107, i64 0, i64 %109
  store i32 -1, i32* %110, align 4
  %111 = load i32, i32* %5, align 4
  store i32 %111, i32* %7, align 4
  %112 = load i32, i32* %5, align 4
  %113 = add nsw i32 %112, 1
  %114 = sext i32 %113 to i64
  %115 = getelementptr inbounds [100 x [100 x i32]], [100 x [100 x i32]]* %2, i64 0, i64 %114
  %116 = load i32, i32* %8, align 4
  %117 = sext i32 %116 to i64
  %118 = getelementptr inbounds [100 x i32], [100 x i32]* %115, i64 0, i64 %117
  %119 = load i32, i32* %118, align 4
  %120 = icmp eq i32 %119, -1
  br i1 %120, label %121, label %122

121:                                              ; preds = %94
  br label %126

122:                                              ; preds = %94
  br label %123

123:                                              ; preds = %122
  %124 = load i32, i32* %5, align 4
  %125 = add nsw i32 %124, 1
  store i32 %125, i32* %5, align 4
  br label %90

126:                                              ; preds = %121, %90
  %127 = load i32, i32* %9, align 4
  %128 = load i32, i32* %3, align 4
  %129 = load i32, i32* %4, align 4
  %130 = mul nsw i32 %128, %129
  %131 = icmp eq i32 %127, %130
  br i1 %131, label %132, label %133

132:                                              ; preds = %126
  br label %224

133:                                              ; preds = %126
  %134 = load i32, i32* %8, align 4
  %135 = sub nsw i32 %134, 1
  store i32 %135, i32* %6, align 4
  br label %136

136:                                              ; preds = %168, %133
  %137 = load i32, i32* %6, align 4
  %138 = icmp sge i32 %137, 0
  br i1 %138, label %139, label %171

139:                                              ; preds = %136
  %140 = load i32, i32* %7, align 4
  %141 = sext i32 %140 to i64
  %142 = getelementptr inbounds [100 x [100 x i32]], [100 x [100 x i32]]* %2, i64 0, i64 %141
  %143 = load i32, i32* %6, align 4
  %144 = sext i32 %143 to i64
  %145 = getelementptr inbounds [100 x i32], [100 x i32]* %142, i64 0, i64 %144
  %146 = load i32, i32* %145, align 4
  %147 = call i32 (i8*, ...) @printf(i8* getelementptr inbounds ([4 x i8], [4 x i8]* @.str.2, i64 0, i64 0), i32 %146)
  %148 = load i32, i32* %9, align 4
  %149 = add nsw i32 %148, 1
  store i32 %149, i32* %9, align 4
  %150 = load i32, i32* %7, align 4
  %151 = sext i32 %150 to i64
  %152 = getelementptr inbounds [100 x [100 x i32]], [100 x [100 x i32]]* %2, i64 0, i64 %151
  %153 = load i32, i32* %6, align 4
  %154 = sext i32 %153 to i64
  %155 = getelementptr inbounds [100 x i32], [100 x i32]* %152, i64 0, i64 %154
  store i32 -1, i32* %155, align 4
  %156 = load i32, i32* %6, align 4
  store i32 %156, i32* %8, align 4
  %157 = load i32, i32* %7, align 4
  %158 = sext i32 %157 to i64
  %159 = getelementptr inbounds [100 x [100 x i32]], [100 x [100 x i32]]* %2, i64 0, i64 %158
  %160 = load i32, i32* %6, align 4
  %161 = sub nsw i32 %160, 1
  %162 = sext i32 %161 to i64
  %163 = getelementptr inbounds [100 x i32], [100 x i32]* %159, i64 0, i64 %162
  %164 = load i32, i32* %163, align 4
  %165 = icmp eq i32 %164, -1
  br i1 %165, label %166, label %167

166:                                              ; preds = %139
  br label %171

167:                                              ; preds = %139
  br label %168

168:                                              ; preds = %167
  %169 = load i32, i32* %6, align 4
  %170 = add nsw i32 %169, -1
  store i32 %170, i32* %6, align 4
  br label %136

171:                                              ; preds = %166, %136
  %172 = load i32, i32* %9, align 4
  %173 = load i32, i32* %3, align 4
  %174 = load i32, i32* %4, align 4
  %175 = mul nsw i32 %173, %174
  %176 = icmp eq i32 %172, %175
  br i1 %176, label %177, label %178

177:                                              ; preds = %171
  br label %224

178:                                              ; preds = %171
  %179 = load i32, i32* %7, align 4
  %180 = sub nsw i32 %179, 1
  store i32 %180, i32* %5, align 4
  br label %181

181:                                              ; preds = %213, %178
  %182 = load i32, i32* %5, align 4
  %183 = icmp sgt i32 %182, 0
  br i1 %183, label %184, label %216

184:                                              ; preds = %181
  %185 = load i32, i32* %5, align 4
  %186 = sext i32 %185 to i64
  %187 = getelementptr inbounds [100 x [100 x i32]], [100 x [100 x i32]]* %2, i64 0, i64 %186
  %188 = load i32, i32* %8, align 4
  %189 = sext i32 %188 to i64
  %190 = getelementptr inbounds [100 x i32], [100 x i32]* %187, i64 0, i64 %189
  %191 = load i32, i32* %190, align 4
  %192 = call i32 (i8*, ...) @printf(i8* getelementptr inbounds ([4 x i8], [4 x i8]* @.str.2, i64 0, i64 0), i32 %191)
  %193 = load i32, i32* %9, align 4
  %194 = add nsw i32 %193, 1
  store i32 %194, i32* %9, align 4
  %195 = load i32, i32* %5, align 4
  %196 = sext i32 %195 to i64
  %197 = getelementptr inbounds [100 x [100 x i32]], [100 x [100 x i32]]* %2, i64 0, i64 %196
  %198 = load i32, i32* %8, align 4
  %199 = sext i32 %198 to i64
  %200 = getelementptr inbounds [100 x i32], [100 x i32]* %197, i64 0, i64 %199
  store i32 -1, i32* %200, align 4
  %201 = load i32, i32* %5, align 4
  store i32 %201, i32* %7, align 4
  %202 = load i32, i32* %5, align 4
  %203 = sub nsw i32 %202, 1
  %204 = sext i32 %203 to i64
  %205 = getelementptr inbounds [100 x [100 x i32]], [100 x [100 x i32]]* %2, i64 0, i64 %204
  %206 = load i32, i32* %8, align 4
  %207 = sext i32 %206 to i64
  %208 = getelementptr inbounds [100 x i32], [100 x i32]* %205, i64 0, i64 %207
  %209 = load i32, i32* %208, align 4
  %210 = icmp eq i32 %209, -1
  br i1 %210, label %211, label %212

211:                                              ; preds = %184
  br label %216

212:                                              ; preds = %184
  br label %213

213:                                              ; preds = %212
  %214 = load i32, i32* %5, align 4
  %215 = add nsw i32 %214, -1
  store i32 %215, i32* %5, align 4
  br label %181

216:                                              ; preds = %211, %181
  %217 = load i32, i32* %9, align 4
  %218 = load i32, i32* %3, align 4
  %219 = load i32, i32* %4, align 4
  %220 = mul nsw i32 %218, %219
  %221 = icmp eq i32 %217, %220
  br i1 %221, label %222, label %223

222:                                              ; preds = %216
  br label %224

223:                                              ; preds = %216
  br label %36

224:                                              ; preds = %222, %177, %132, %86, %36
  ret i32 0
}

declare dso_local i32 @__isoc99_scanf(i8*, ...) #1

declare dso_local i32 @printf(i8*, ...) #1


!llvm.module.flags = !{!0}
!llvm.ident = !{!1}

!0 = !{i32 1, !"wchar_size", i32 4}
!1 = !{!"clang version 10.0.0-4ubuntu1 "}
